target datalayout = "e-m:e-p270:32:32-p271:32:32-p272:64:64-i64:64-i128:128-f80:128-n8:16:32:64-S128"
target triple = "x86_64-pc-linux-gnu"

%"class.llvm::NoopStatistic" = type { i8 }
%"class.llvm::StringRef" = type { ptr, i64 }
%"class.llvm::SmallVectorBase" = type { ptr, i32, i32 }
%"class.std::_Function_base" = type { %"union.std::_Any_data", ptr }
%"union.std::_Any_data" = type { %"union.std::_Nocopy_types" }
%"union.std::_Nocopy_types" = type { { i64, i64 } }
%"class.llvm::MetadataLoader::MetadataLoaderImpl" = type <{ %"class.(anonymous namespace)::BitcodeReaderMetadataList", ptr, ptr, ptr, ptr, %"struct.llvm::MetadataLoaderCallbacks", %"class.llvm::BitstreamCursor", %"class.std::vector.32", %"class.std::vector.37", i64, %"class.std::vector.42", %"class.llvm::SmallDenseMap.47", %"class.llvm::DenseMap", i8, i8, i8, i8, [4 x i8], %"class.llvm::DenseMap.51", i8, [7 x i8] }>
%"class.(anonymous namespace)::BitcodeReaderMetadataList" = type <{ %"class.llvm::SmallVector.1", %"class.llvm::SmallDenseSet", %"class.llvm::SmallDenseSet", %struct.anon, ptr, i32, [4 x i8] }>
%"class.llvm::SmallVector.1" = type { %"class.llvm::SmallVectorImpl.2", %"struct.llvm::SmallVectorStorage.5" }
%"class.llvm::SmallVectorImpl.2" = type { %"class.llvm::SmallVectorTemplateBase.3" }
%"class.llvm::SmallVectorTemplateBase.3" = type { %"class.llvm::SmallVectorTemplateCommon.4" }
%"class.llvm::SmallVectorTemplateCommon.4" = type { %"class.llvm::SmallVectorBase" }
%"struct.llvm::SmallVectorStorage.5" = type { [8 x i8] }
%"class.llvm::SmallDenseSet" = type { %"class.llvm::detail::DenseSetImpl" }
%"class.llvm::detail::DenseSetImpl" = type { %"class.llvm::SmallDenseMap" }
%"class.llvm::SmallDenseMap" = type { i32, i32, %"struct.llvm::AlignedCharArrayUnion.6" }
%"struct.llvm::AlignedCharArrayUnion.6" = type { [16 x i8] }
%struct.anon = type { %"class.llvm::SmallDenseMap.7", %"class.llvm::SmallDenseMap.10", %"class.llvm::SmallDenseMap.10", %"class.llvm::SmallVector.13" }
%"class.llvm::SmallDenseMap.7" = type { i32, i32, %"struct.llvm::AlignedCharArrayUnion.9" }
%"struct.llvm::AlignedCharArrayUnion.9" = type { [16 x i8] }
%"class.llvm::SmallDenseMap.10" = type { i32, i32, %"struct.llvm::AlignedCharArrayUnion.12" }
%"struct.llvm::AlignedCharArrayUnion.12" = type { [16 x i8] }
%"class.llvm::SmallVector.13" = type { %"class.llvm::SmallVectorImpl.14", %"struct.llvm::SmallVectorStorage.17" }
%"class.llvm::SmallVectorImpl.14" = type { %"class.llvm::SmallVectorTemplateBase.15" }
%"class.llvm::SmallVectorTemplateBase.15" = type { %"class.llvm::SmallVectorTemplateCommon.16" }
%"class.llvm::SmallVectorTemplateCommon.16" = type { %"class.llvm::SmallVectorBase" }
%"struct.llvm::SmallVectorStorage.17" = type { [16 x i8] }
%"struct.llvm::MetadataLoaderCallbacks" = type { %"class.std::function.18", %"class.std::function.21", %"class.std::optional" }
%"class.std::function.18" = type { %"class.std::_Function_base", ptr }
%"class.std::function.21" = type { %"class.std::_Function_base", ptr }
%"class.std::optional" = type { %"struct.std::_Optional_base" }
%"struct.std::_Optional_base" = type { %"struct.std::_Optional_payload" }
%"struct.std::_Optional_payload" = type { %"struct.std::_Optional_payload.base", [7 x i8] }
%"struct.std::_Optional_payload.base" = type { %"struct.std::_Optional_payload_base.base" }
%"struct.std::_Optional_payload_base.base" = type <{ %"union.std::_Optional_payload_base<std::function<void (llvm::Metadata **, unsigned int, std::function<llvm::Type *(unsigned int)>, std::function<unsigned int (unsigned int, unsigned int)>)>>::_Storage", i8 }>
%"union.std::_Optional_payload_base<std::function<void (llvm::Metadata **, unsigned int, std::function<llvm::Type *(unsigned int)>, std::function<unsigned int (unsigned int, unsigned int)>)>>::_Storage" = type { %"class.std::function.24" }
%"class.std::function.24" = type { %"class.std::_Function_base", ptr }
%"class.llvm::BitstreamCursor" = type { %"class.llvm::SimpleBitstreamCursor.base", i32, %"class.std::vector", %"class.llvm::SmallVector.27", ptr }
%"class.llvm::SimpleBitstreamCursor.base" = type <{ %"class.llvm::ArrayRef", i64, i64, i32 }>
%"class.llvm::ArrayRef" = type { ptr, i64 }
%"class.std::vector" = type { %"struct.std::_Vector_base" }
%"struct.std::_Vector_base" = type { %"struct.std::_Vector_base<std::shared_ptr<llvm::BitCodeAbbrev>, std::allocator<std::shared_ptr<llvm::BitCodeAbbrev>>>::_Vector_impl" }
%"struct.std::_Vector_base<std::shared_ptr<llvm::BitCodeAbbrev>, std::allocator<std::shared_ptr<llvm::BitCodeAbbrev>>>::_Vector_impl" = type { %"struct.std::_Vector_base<std::shared_ptr<llvm::BitCodeAbbrev>, std::allocator<std::shared_ptr<llvm::BitCodeAbbrev>>>::_Vector_impl_data" }
%"struct.std::_Vector_base<std::shared_ptr<llvm::BitCodeAbbrev>, std::allocator<std::shared_ptr<llvm::BitCodeAbbrev>>>::_Vector_impl_data" = type { ptr, ptr, ptr }
%"class.llvm::SmallVector.27" = type { %"class.llvm::SmallVectorImpl.28", %"struct.llvm::SmallVectorStorage.31" }
%"class.llvm::SmallVectorImpl.28" = type { %"class.llvm::SmallVectorTemplateBase.29" }
%"class.llvm::SmallVectorTemplateBase.29" = type { %"class.llvm::SmallVectorTemplateCommon.30" }
%"class.llvm::SmallVectorTemplateCommon.30" = type { %"class.llvm::SmallVectorBase" }
%"struct.llvm::SmallVectorStorage.31" = type { [256 x i8] }
%"class.std::vector.32" = type { %"struct.std::_Vector_base.33" }
%"struct.std::_Vector_base.33" = type { %"struct.std::_Vector_base<llvm::StringRef, std::allocator<llvm::StringRef>>::_Vector_impl" }
%"struct.std::_Vector_base<llvm::StringRef, std::allocator<llvm::StringRef>>::_Vector_impl" = type { %"struct.std::_Vector_base<llvm::StringRef, std::allocator<llvm::StringRef>>::_Vector_impl_data" }
%"struct.std::_Vector_base<llvm::StringRef, std::allocator<llvm::StringRef>>::_Vector_impl_data" = type { ptr, ptr, ptr }
%"class.std::vector.37" = type { %"struct.std::_Vector_base.38" }
%"struct.std::_Vector_base.38" = type { %"struct.std::_Vector_base<unsigned long, std::allocator<unsigned long>>::_Vector_impl" }
%"struct.std::_Vector_base<unsigned long, std::allocator<unsigned long>>::_Vector_impl" = type { %"struct.std::_Vector_base<unsigned long, std::allocator<unsigned long>>::_Vector_impl_data" }
%"struct.std::_Vector_base<unsigned long, std::allocator<unsigned long>>::_Vector_impl_data" = type { ptr, ptr, ptr }
%"class.std::vector.42" = type { %"struct.std::_Vector_base.43" }
%"struct.std::_Vector_base.43" = type { %"struct.std::_Vector_base<std::pair<llvm::DICompileUnit *, llvm::Metadata *>, std::allocator<std::pair<llvm::DICompileUnit *, llvm::Metadata *>>>::_Vector_impl" }
%"struct.std::_Vector_base<std::pair<llvm::DICompileUnit *, llvm::Metadata *>, std::allocator<std::pair<llvm::DICompileUnit *, llvm::Metadata *>>>::_Vector_impl" = type { %"struct.std::_Vector_base<std::pair<llvm::DICompileUnit *, llvm::Metadata *>, std::allocator<std::pair<llvm::DICompileUnit *, llvm::Metadata *>>>::_Vector_impl_data" }
%"struct.std::_Vector_base<std::pair<llvm::DICompileUnit *, llvm::Metadata *>, std::allocator<std::pair<llvm::DICompileUnit *, llvm::Metadata *>>>::_Vector_impl_data" = type { ptr, ptr, ptr }
%"class.llvm::SmallDenseMap.47" = type { i32, i32, %"struct.llvm::AlignedCharArrayUnion.49" }
%"struct.llvm::AlignedCharArrayUnion.49" = type { [256 x i8] }
%"class.llvm::DenseMap" = type <{ ptr, i32, i32, i32, [4 x i8] }>
%"class.llvm::DenseMap.51" = type <{ ptr, i32, i32, i32, [4 x i8] }>
%class.anon.431 = type { ptr, ptr }

@_ZL17NumMDStringLoaded = internal global %"class.llvm::NoopStatistic" zeroinitializer, align 1

; Function Attrs: mustprogress nounwind uwtable
define linkonce_odr hidden noundef nonnull align 1 dereferenceable(1) ptr @_ZN4llvm13NoopStatisticppEv(ptr noundef nonnull align 1 dereferenceable(1) %0) #1 comdat align 2 {
  %2 = alloca ptr, align 8
  store ptr %0, ptr %2, align 8
  %3 = load ptr, ptr %2, align 8
  ret ptr %3
}

; Function Attrs: mustprogress nounwind uwtable
define internal void @"_ZZN4llvm14MetadataLoader18MetadataLoaderImpl16parseOneMetadataERNS_15SmallVectorImplImEEjRN12_GLOBAL__N_112_GLOBAL__N_116PlaceholderQueueENS_9StringRefERjENK3$_0clES9_"(ptr noundef nonnull align 8 dereferenceable(16) %0, ptr %1, i64 %2) #1 align 2 {
  %4 = alloca %"class.llvm::StringRef", align 8
  %5 = alloca ptr, align 8
  %6 = alloca %"class.llvm::StringRef", align 8
  %7 = getelementptr inbounds nuw { ptr, i64 }, ptr %4, i32 0, i32 0
  store ptr %1, ptr %7, align 8
  %8 = getelementptr inbounds nuw { ptr, i64 }, ptr %4, i32 0, i32 1
  store i64 %2, ptr %8, align 8
  store ptr %0, ptr %5, align 8
  %9 = load ptr, ptr %5, align 8
  %10 = getelementptr inbounds nuw %class.anon.431, ptr %9, i32 0, i32 0
  %11 = load ptr, ptr %10, align 8
  %12 = call noundef nonnull align 1 dereferenceable(1) ptr @_ZN4llvm13NoopStatisticppEv(ptr noundef nonnull align 1 dereferenceable(1) @_ZL17NumMDStringLoaded)
  %13 = getelementptr inbounds nuw %"class.llvm::MetadataLoader::MetadataLoaderImpl", ptr %11, i32 0, i32 0
  %14 = getelementptr inbounds nuw %"class.llvm::MetadataLoader::MetadataLoaderImpl", ptr %11, i32 0, i32 3
  %15 = load ptr, ptr %14, align 8
  call void @llvm.memcpy.p0.p0.i64(ptr align 8 %6, ptr align 8 %4, i64 16, i1 false)
  %16 = getelementptr inbounds nuw { ptr, i64 }, ptr %6, i32 0, i32 0
  %17 = load ptr, ptr %16, align 8
  %18 = getelementptr inbounds nuw { ptr, i64 }, ptr %6, i32 0, i32 1
  %19 = load i64, ptr %18, align 8
  %20 = call noundef ptr @_ZN4llvm8MDString3getERNS_11LLVMContextENS_9StringRefE(ptr noundef nonnull align 8 dereferenceable(8) %15, ptr %17, i64 %19)
  %21 = getelementptr inbounds nuw %class.anon.431, ptr %9, i32 0, i32 1
  %22 = load ptr, ptr %21, align 8
  %23 = load i32, ptr %22, align 4
  call void @_ZN12_GLOBAL__N_125BitcodeReaderMetadataList11assignValueEPN4llvm8MetadataEj(ptr noundef nonnull align 8 dereferenceable(188) %13, ptr noundef %20, i32 noundef %23)
  %24 = getelementptr inbounds nuw %class.anon.431, ptr %9, i32 0, i32 1
  %25 = load ptr, ptr %24, align 8
  %26 = load i32, ptr %25, align 4
  %27 = add i32 %26, 1
  store i32 %27, ptr %25, align 4
  ret void
}

; Function Attrs: mustprogress nounwind uwtable
define internal void @"_ZN4llvm12function_refIFvNS_9StringRefEEE11callback_fnIZNS_14MetadataLoader18MetadataLoaderImpl16parseOneMetadataERNS_15SmallVectorImplImEEjRN12_GLOBAL__N_112_GLOBAL__N_116PlaceholderQueueES1_RjE3$_0EEvlS1_"(i64 noundef %0, ptr %1, i64 %2) #1 align 2 {
  %4 = alloca %"class.llvm::StringRef", align 8
  %5 = alloca i64, align 8
  %6 = alloca %"class.llvm::StringRef", align 8
  %7 = getelementptr inbounds nuw { ptr, i64 }, ptr %4, i32 0, i32 0
  store ptr %1, ptr %7, align 8
  %8 = getelementptr inbounds nuw { ptr, i64 }, ptr %4, i32 0, i32 1
  store i64 %2, ptr %8, align 8
  store i64 %0, ptr %5, align 8
  %9 = load i64, ptr %5, align 8
  %10 = inttoptr i64 %9 to ptr
  call void @llvm.memcpy.p0.p0.i64(ptr align 8 %6, ptr align 8 %4, i64 16, i1 false)
  %11 = getelementptr inbounds nuw { ptr, i64 }, ptr %6, i32 0, i32 0
  %12 = load ptr, ptr %11, align 8
  %13 = getelementptr inbounds nuw { ptr, i64 }, ptr %6, i32 0, i32 1
  %14 = load i64, ptr %13, align 8
  call void @"_ZZN4llvm14MetadataLoader18MetadataLoaderImpl16parseOneMetadataERNS_15SmallVectorImplImEEjRN12_GLOBAL__N_112_GLOBAL__N_116PlaceholderQueueENS_9StringRefERjENK3$_0clES9_"(ptr noundef nonnull align 8 dereferenceable(16) %10, ptr %12, i64 %14)
  ret void
}