; Function Attrs: mustprogress nounwind uwtable
define internal void @"_ZN4llvm12function_refIFvNS_9StringRefEEE11callback_fnIZNS_14MetadataLoader18MetadataLoaderImpl16parseOneMetadataERNS_15SmallVectorImplImEEjRN12_GLOBAL__N_112_GLOBAL__N_116PlaceholderQueueES1_RjE3$_0EEvlS1_"(i64 noundef %0, ptr %1, i64 %2) #0 align 2 {
  %4 = inttoptr i64 %0 to ptr
  %5 = load ptr, ptr %4, align 8
  %6 = getelementptr inbounds nuw i8, ptr %5, i64 208
  %7 = load ptr, ptr %6, align 8
  %8 = tail call noundef ptr @_ZN4llvm8MDString3getERNS_11LLVMContextENS_9StringRefE(ptr noundef nonnull align 8 dereferenceable(8) %7, ptr %1, i64 %2) #24
  %9 = getelementptr inbounds nuw i8, ptr %4, i64 8
  %10 = load ptr, ptr %9, align 8
  %11 = load i32, ptr %10, align 4
  tail call fastcc void @_ZN12_GLOBAL__N_125BitcodeReaderMetadataList11assignValueEPN4llvm8MetadataEj(ptr noundef nonnull align 8 dereferenceable(188) %5, ptr noundef %8, i32 noundef %11)
  %12 = load ptr, ptr %9, align 8
  %13 = load i32, ptr %12, align 4
  %14 = add i32 %13, 1
  store i32 %14, ptr %12, align 4
  ret void
}